; Function Attrs: mustprogress uwtable
define noundef i64 @_ZN8proxygen17FlowControlFilter20generateWindowUpdateERN5folly10IOBufQueueEmj(ptr nocapture noundef nonnull readonly align 8 dereferenceable(101) %this, ptr noundef nonnull align 8 dereferenceable(72) %writeBuf, i64 noundef %stream, i32 noundef %delta) unnamed_addr #3 align 2 personality ptr @__gxx_personality_v0 {
entry:
  %ref.tmp2 = alloca %"class.google::LogMessageFatal", align 8
  %tobool.not = icmp eq i64 %stream, 0
  br i1 %tobool.not, label %cond.false, label %cleanup.done

cond.false:                                       ; preds = %entry
  call void @_ZN6google15LogMessageFatalC1EPKci(ptr noundef nonnull align 8 dereferenceable(96) %ref.tmp2, ptr noundef nonnull @.str, i32 noundef 173)
  %call = invoke noundef nonnull align 8 dereferenceable(8) ptr @_ZN6google10LogMessage6streamEv(ptr noundef nonnull align 8 dereferenceable(96) %ref.tmp2)
          to label %invoke.cont unwind label %lpad

invoke.cont:                                      ; preds = %cond.false
  %call4 = invoke noundef nonnull align 8 dereferenceable(8) ptr @_ZStlsISt11char_traitsIcEERSt13basic_ostreamIcT_ES5_PKc(ptr noundef nonnull align 8 dereferenceable(8) %call, ptr noundef nonnull @.str.25)
          to label %invoke.cont3 unwind label %lpad

invoke.cont3:                                     ; preds = %invoke.cont
  %call6 = invoke noundef nonnull align 8 dereferenceable(8) ptr @_ZStlsISt11char_traitsIcEERSt13basic_ostreamIcT_ES5_PKc(ptr noundef nonnull align 8 dereferenceable(8) %call4, ptr noundef nonnull @.str.26)
          to label %cleanup.action unwind label %lpad

cleanup.action:                                   ; preds = %invoke.cont3
  call void @_ZN6google15LogMessageFatalD1Ev(ptr noundef nonnull align 8 dereferenceable(96) %ref.tmp2) #17
  unreachable

lpad:                                             ; preds = %invoke.cont3, %invoke.cont, %cond.false
  %0 = landingpad { ptr, i32 }
          cleanup
  call void @_ZN6google15LogMessageFatalD1Ev(ptr noundef nonnull align 8 dereferenceable(96) %ref.tmp2) #17
  unreachable

cleanup.done:                                     ; preds = %entry
  %call_ = getelementptr inbounds i8, ptr %this, i64 24
  %1 = load ptr, ptr %call_, align 8
  %vtable = load ptr, ptr %1, align 8
  %vfn = getelementptr inbounds i8, ptr %vtable, i64 312
  %2 = load ptr, ptr %vfn, align 8
  %call11 = tail call noundef i64 %2(ptr noundef nonnull align 8 dereferenceable(8) %1, ptr noundef nonnull align 8 dereferenceable(72) %writeBuf, i64 noundef %stream, i32 noundef %delta)
  ret i64 %call11
}